; Function Attrs: mustprogress nounwind uwtable
define hidden noundef range(i32 -4, 1) i32 @_ZN31G1ConcurrentRefineThreadControl10initializeEP18G1ConcurrentRefine(ptr noundef nonnull align 8 dereferenceable(24) %0, ptr noundef %1) local_unnamed_addr #0 align 2 {
  %3 = alloca ptr, align 8
  store ptr %1, ptr %0, align 8
  %4 = getelementptr inbounds i8, ptr %0, i64 12
  %5 = load i32, ptr %4, align 4
  %.not = icmp eq i32 %5, 0
  br i1 %.not, label %34, label %6

6:                                                ; preds = %2
  %7 = getelementptr inbounds i8, ptr %0, i64 8
  %8 = tail call noundef ptr @_ZN24G1ConcurrentRefineThread6createEP18G1ConcurrentRefinej(ptr noundef %1, i32 noundef 0) #17
  %9 = icmp eq ptr %8, null
  br i1 %9, label %.thread.i, label %10

10:                                               ; preds = %6
  %11 = getelementptr inbounds i8, ptr %8, i64 792
  %12 = load ptr, ptr %11, align 8
  %13 = icmp eq ptr %12, null
  br i1 %13, label %.thread.i, label %_ZN31G1ConcurrentRefineThreadControl24create_refinement_threadEjb.exit

.thread.i:                                        ; preds = %10, %6
  %14 = load volatile ptr, ptr getelementptr inbounds (i8, ptr @_ZN16LogTagSetMappingILN6LogTag4typeE49ELS1_0ELS1_0ELS1_0ELS1_0ELS1_0EE7_tagsetE, i64 72), align 8
  %.not.i = icmp eq ptr %14, null
  br i1 %.not.i, label %17, label %15

15:                                               ; preds = %.thread.i
  %16 = select i1 %9, ptr @.str.4, ptr @.str.5
  tail call void (ptr, ...) @_ZN7LogImplILN6LogTag4typeE49ELS1_0ELS1_0ELS1_0ELS1_0ELS1_0EE5writeILN8LogLevel4typeE4EEEvPKcz(ptr noundef nonnull @.str, i32 noundef 0, ptr noundef nonnull %16)
  br label %17

17:                                               ; preds = %15, %.thread.i
  br i1 %9, label %_ZN31G1ConcurrentRefineThreadControl24create_refinement_threadEjb.exit, label %18

18:                                               ; preds = %17
  %19 = load ptr, ptr %8, align 8
  %20 = getelementptr inbounds i8, ptr %19, i64 16
  %21 = load ptr, ptr %20, align 8
  tail call void %21(ptr noundef nonnull align 8 dereferenceable(1104) %8) #17
  br label %_ZN31G1ConcurrentRefineThreadControl24create_refinement_threadEjb.exit

_ZN31G1ConcurrentRefineThreadControl24create_refinement_threadEjb.exit: ; preds = %10, %17, %18
  %.1.i = phi ptr [ null, %18 ], [ null, %17 ], [ %8, %10 ]
  store ptr %.1.i, ptr %3, align 8
  %22 = call noundef i32 @_ZN26GrowableArrayWithAllocatorIP24G1ConcurrentRefineThread18GrowableArrayCHeapIS1_L8MEMFLAGS5EEE6appendERKS1_(ptr noundef nonnull align 8 dereferenceable(16) %7, ptr noundef nonnull align 8 dereferenceable(8) %3)
  %23 = getelementptr inbounds i8, ptr %0, i64 16
  %24 = load ptr, ptr %23, align 8
  %25 = load ptr, ptr %24, align 8
  %26 = icmp eq ptr %25, null
  br i1 %26, label %.sink.split, label %27

27:                                               ; preds = %_ZN31G1ConcurrentRefineThreadControl24create_refinement_threadEjb.exit
  %28 = load i8, ptr @UseDynamicNumberOfGCThreads, align 1
  %29 = trunc i8 %28 to i1
  br i1 %29, label %34, label %30

30:                                               ; preds = %27
  %31 = load i32, ptr %4, align 4
  %32 = add i32 %31, -1
  %33 = call noundef zeroext i1 @_ZN31G1ConcurrentRefineThreadControl22ensure_threads_createdEjb(ptr noundef nonnull align 8 dereferenceable(24) %0, i32 noundef %32, i1 noundef zeroext true)
  br i1 %33, label %34, label %.sink.split

.sink.split:                                      ; preds = %30, %_ZN31G1ConcurrentRefineThreadControl24create_refinement_threadEjb.exit
  %.str.7.sink = phi ptr [ @.str.6, %_ZN31G1ConcurrentRefineThreadControl24create_refinement_threadEjb.exit ], [ @.str.7, %30 ]
  call void @_Z33vm_shutdown_during_initializationPKcS0_(ptr noundef nonnull %.str.7.sink, ptr noundef null) #17
  br label %34

34:                                               ; preds = %.sink.split, %2, %30, %27
  %.0 = phi i32 [ 0, %27 ], [ 0, %30 ], [ 0, %2 ], [ -4, %.sink.split ]
  ret i32 %.0
}